target datalayout = "e-m:e-p270:32:32-p271:32:32-p272:64:64-i64:64-i128:128-f80:128-n8:16:32:64-S128"
target triple = "x86_64-pc-linux-gnu"

%struct._object = type { %union.anon, ptr }
%union.anon = type { i64 }
%struct.XxoObject = type { %struct._object, ptr, [10 x i8], i64 }

; Function Attrs: alwaysinline nounwind uwtable
define internal void @Py_INCREF(ptr noundef %0) #5 {
  %2 = alloca ptr, align 8
  store ptr %0, ptr %2, align 8, !tbaa !3
  %3 = load ptr, ptr %2, align 8, !tbaa !3
  call void @_Py_IncRef(ptr noundef %3)
  ret void
}

; Function Attrs: inlinehint nounwind uwtable
define internal ptr @_Py_NewRef(ptr noundef %0) #4 {
  %2 = alloca ptr, align 8
  store ptr %0, ptr %2, align 8, !tbaa !3
  %3 = load ptr, ptr %2, align 8, !tbaa !3
  call void @Py_INCREF(ptr noundef %3)
  %4 = load ptr, ptr %2, align 8, !tbaa !3
  ret ptr %4
}

; Function Attrs: nounwind uwtable
define internal ptr @Xxo_getattro(ptr noundef %0, ptr noundef %1) #0 {
  %3 = alloca ptr, align 8
  %4 = alloca ptr, align 8
  %5 = alloca ptr, align 8
  %6 = alloca ptr, align 8
  %7 = alloca i32, align 4
  store ptr %0, ptr %4, align 8, !tbaa !8
  store ptr %1, ptr %5, align 8, !tbaa !3
  %8 = load ptr, ptr %4, align 8, !tbaa !8
  %9 = getelementptr inbounds nuw %struct.XxoObject, ptr %8, i32 0, i32 1
  %10 = load ptr, ptr %9, align 8, !tbaa !18
  %11 = icmp ne ptr %10, null
  br i1 %11, label %12, label %32

12:                                               ; preds = %2
  call void @llvm.lifetime.start.p0(i64 8, ptr %6) #6
  %13 = load ptr, ptr %4, align 8, !tbaa !8
  %14 = getelementptr inbounds nuw %struct.XxoObject, ptr %13, i32 0, i32 1
  %15 = load ptr, ptr %14, align 8, !tbaa !18
  %16 = load ptr, ptr %5, align 8, !tbaa !3
  %17 = call ptr @PyDict_GetItemWithError(ptr noundef %15, ptr noundef %16)
  store ptr %17, ptr %6, align 8, !tbaa !3
  %18 = load ptr, ptr %6, align 8, !tbaa !3
  %19 = icmp ne ptr %18, null
  br i1 %19, label %20, label %23

20:                                               ; preds = %12
  %21 = load ptr, ptr %6, align 8, !tbaa !3
  %22 = call ptr @_Py_NewRef(ptr noundef %21)
  store ptr %22, ptr %3, align 8
  store i32 1, ptr %7, align 4
  br label %29

23:                                               ; preds = %12
  %24 = call ptr @PyErr_Occurred()
  %25 = icmp ne ptr %24, null
  br i1 %25, label %26, label %27

26:                                               ; preds = %23
  store ptr null, ptr %3, align 8
  store i32 1, ptr %7, align 4
  br label %29

27:                                               ; preds = %23
  br label %28

28:                                               ; preds = %27
  store i32 0, ptr %7, align 4
  br label %29

29:                                               ; preds = %28, %26, %20
  call void @llvm.lifetime.end.p0(i64 8, ptr %6) #6
  %30 = load i32, ptr %7, align 4
  switch i32 %30, label %38 [
    i32 0, label %31
    i32 1, label %36
  ]

31:                                               ; preds = %29
  br label %32

32:                                               ; preds = %31, %2
  %33 = load ptr, ptr %4, align 8, !tbaa !8
  %34 = load ptr, ptr %5, align 8, !tbaa !3
  %35 = call ptr @PyObject_GenericGetAttr(ptr noundef %33, ptr noundef %34)
  store ptr %35, ptr %3, align 8
  br label %36

36:                                               ; preds = %32, %29
  %37 = load ptr, ptr %3, align 8
  ret ptr %37

38:                                               ; preds = %29
  unreachable
}