; Function Attrs: nounwind uwtable
define internal ptr @Xxo_getattro(ptr noundef %0, ptr noundef %1) #0 {
  %3 = getelementptr inbounds nuw i8, ptr %0, i64 16
  %4 = load ptr, ptr %3, align 8, !tbaa !18
  %.not = icmp eq ptr %4, null
  br i1 %.not, label %10, label %5

5:                                                ; preds = %2
  %6 = tail call ptr @PyDict_GetItemWithError(ptr noundef nonnull %4, ptr noundef %1) #5
  %.not11 = icmp eq ptr %6, null
  br i1 %.not11, label %8, label %7

7:                                                ; preds = %5
  tail call void @_Py_IncRef(ptr noundef nonnull %6) #5
  br label %.thread

8:                                                ; preds = %5
  %9 = tail call ptr @PyErr_Occurred() #5
  %.not12 = icmp eq ptr %9, null
  br i1 %.not12, label %10, label %.thread

10:                                               ; preds = %8, %2
  %11 = tail call ptr @PyObject_GenericGetAttr(ptr noundef nonnull %0, ptr noundef %1) #5
  br label %.thread

.thread:                                          ; preds = %8, %7, %10
  %.1 = phi ptr [ %11, %10 ], [ null, %8 ], [ %6, %7 ]
  ret ptr %.1
}